; ModuleID = 'source-C-CXX/25/1187.c'
source_filename = "source-C-CXX/25/1187.c"
target datalayout = "e-m:e-p270:32:32-p271:32:32-p272:64:64-i64:64-f80:128-n8:16:32:64-S128"
target triple = "x86_64-pc-linux-gnu"

; Function Attrs: nounwind sspstrong uwtable
define dso_local i32 @main() local_unnamed_addr #0 {
  %1 = alloca [1000 x i8], align 16
  %2 = getelementptr inbounds [1000 x i8], [1000 x i8]* %1, i64 0, i64 0
  call void @llvm.lifetime.start.p0i8(i64 1000, i8* nonnull %2) #4
  %3 = call i32 (i8*, ...) bitcast (i32 (...)* @gets to i32 (i8*, ...)*)(i8* nonnull %2) #4
  br label %4

4:                                                ; preds = %41, %0
  %5 = phi i64 [ 0, %0 ], [ %42, %41 ]
  %6 = getelementptr inbounds [1000 x i8], [1000 x i8]* %1, i64 0, i64 %5
  %7 = load i8, i8* %6, align 1, !tbaa !5
  switch i8 %7, label %8 [
    i8 0, label %36
    i8 32, label %10
  ]

8:                                                ; preds = %4
  %9 = add nuw nsw i64 %5, 1
  br label %41

10:                                               ; preds = %4
  %11 = add nuw nsw i64 %5, 1
  %12 = getelementptr inbounds [1000 x i8], [1000 x i8]* %1, i64 0, i64 %11
  %13 = load i8, i8* %12, align 1, !tbaa !5
  %14 = icmp eq i8 %13, 32
  br i1 %14, label %15, label %41

15:                                               ; preds = %10, %15
  %16 = phi i64 [ %18, %15 ], [ %5, %10 ]
  %17 = phi i8* [ %19, %15 ], [ %6, %10 ]
  %18 = add nuw nsw i64 %16, 1
  %19 = getelementptr inbounds [1000 x i8], [1000 x i8]* %1, i64 0, i64 %18
  %20 = load i8, i8* %19, align 1, !tbaa !5
  store i8 %20, i8* %17, align 1, !tbaa !5
  %21 = load i8, i8* %19, align 1, !tbaa !5
  %22 = icmp eq i8 %21, 0
  br i1 %22, label %41, label %15, !llvm.loop !8

23:                                               ; preds = %36, %27
  %24 = phi i64 [ %28, %27 ], [ %37, %36 ]
  %25 = getelementptr inbounds [1000 x i8], [1000 x i8]* %1, i64 0, i64 %24
  %26 = load i8, i8* %25, align 1, !tbaa !5
  switch i8 %26, label %27 [
    i8 0, label %39
    i8 32, label %29
  ]

27:                                               ; preds = %23
  %28 = add nuw i64 %24, 1
  br label %23, !llvm.loop !10

29:                                               ; preds = %23
  %30 = add nuw i64 %24, 1
  %31 = getelementptr inbounds [1000 x i8], [1000 x i8]* %1, i64 0, i64 %30
  %32 = load i8, i8* %31, align 1, !tbaa !5
  %33 = icmp eq i8 %32, 32
  %34 = zext i1 %33 to i32
  %35 = add nuw nsw i32 %38, %34
  br label %36, !llvm.loop !10

36:                                               ; preds = %4, %29
  %37 = phi i64 [ %30, %29 ], [ 0, %4 ]
  %38 = phi i32 [ %35, %29 ], [ 0, %4 ]
  br label %23

39:                                               ; preds = %23
  %40 = icmp eq i32 %38, 0
  br i1 %40, label %43, label %41

41:                                               ; preds = %15, %39, %8, %10
  %42 = phi i64 [ 0, %39 ], [ %9, %8 ], [ %11, %10 ], [ %11, %15 ]
  br label %4, !llvm.loop !8

43:                                               ; preds = %39
  %44 = call i32 @puts(i8* nonnull %2)
  call void @llvm.lifetime.end.p0i8(i64 1000, i8* nonnull %2) #4
  ret i32 0
}

; Function Attrs: argmemonly mustprogress nofree nosync nounwind willreturn
declare void @llvm.lifetime.start.p0i8(i64 immarg, i8* nocapture) #1

declare i32 @gets(...) local_unnamed_addr #2

; Function Attrs: nofree nounwind
declare noundef i32 @puts(i8* nocapture noundef readonly) local_unnamed_addr #3

; Function Attrs: argmemonly mustprogress nofree nosync nounwind willreturn
declare void @llvm.lifetime.end.p0i8(i64 immarg, i8* nocapture) #1


!llvm.module.flags = !{!0, !1, !2, !3}
!llvm.ident = !{!4}

!0 = !{i32 1, !"wchar_size", i32 4}
!1 = !{i32 7, !"PIC Level", i32 2}
!2 = !{i32 7, !"PIE Level", i32 2}
!3 = !{i32 7, !"uwtable", i32 1}
!4 = !{!"clang version 13.0.0"}
!5 = !{!6, !6, i64 0}
!6 = !{!"omnipotent char", !7, i64 0}
!7 = !{!"Simple C/C++ TBAA"}
!8 = distinct !{!8, !9}
!9 = !{!"llvm.loop.mustprogress"}
!10 = distinct !{!10, !9}
